target datalayout = "e-m:e-p270:32:32-p271:32:32-p272:64:64-i64:64-i128:128-f80:128-n8:16:32:64-S128"
target triple = "x86_64-pc-linux-gnu"

%"class.base::BasicStringPiece" = type { ptr, i64 }

; Function Attrs: mustprogress nounwind uwtable
define weak_odr noundef i64 @_ZNK4base16BasicStringPieceINSt7__cxx1112basic_stringIcSt11char_traitsIcESaIcEEEE6lengthEv(ptr noundef nonnull align 8 dereferenceable(16) %0) #0 comdat align 2 {
  %2 = alloca ptr, align 8
  store ptr %0, ptr %2, align 8, !tbaa !3
  %3 = load ptr, ptr %2, align 8
  %4 = getelementptr inbounds nuw %"class.base::BasicStringPiece", ptr %3, i32 0, i32 1
  %5 = load i64, ptr %4, align 8, !tbaa !12
  ret i64 %5
}

; Function Attrs: mustprogress nounwind uwtable
define linkonce_odr noundef i64 @_ZN4base8internal18find_first_not_ofTINSt7__cxx1112basic_stringIcSt11char_traitsIcESaIcEEEEEmRKNS_16BasicStringPieceIT_EENS9_10value_typeEm(ptr noundef nonnull align 8 dereferenceable(16) %0, i8 noundef signext %1, i64 noundef %2) #0 comdat {
  %4 = alloca i64, align 8
  %5 = alloca ptr, align 8
  %6 = alloca i8, align 1
  %7 = alloca i64, align 8
  store ptr %0, ptr %5, align 8, !tbaa !3
  store i8 %1, ptr %6, align 1, !tbaa !25
  store i64 %2, ptr %7, align 8, !tbaa !19
  %8 = load ptr, ptr %5, align 8, !tbaa !3
  %9 = call noundef i64 @_ZNK4base16BasicStringPieceINSt7__cxx1112basic_stringIcSt11char_traitsIcESaIcEEEE4sizeEv(ptr noundef nonnull align 8 dereferenceable(16) %8)
  %10 = icmp eq i64 %9, 0
  br i1 %10, label %11, label %12

11:                                               ; preds = %3
  store i64 -1, ptr %4, align 8
  br label %35

12:                                               ; preds = %3
  br label %13

13:                                               ; preds = %31, %12
  %14 = load i64, ptr %7, align 8, !tbaa !19
  %15 = load ptr, ptr %5, align 8, !tbaa !3
  %16 = call noundef i64 @_ZNK4base16BasicStringPieceINSt7__cxx1112basic_stringIcSt11char_traitsIcESaIcEEEE4sizeEv(ptr noundef nonnull align 8 dereferenceable(16) %15)
  %17 = icmp ult i64 %14, %16
  br i1 %17, label %18, label %34

18:                                               ; preds = %13
  %19 = load ptr, ptr %5, align 8, !tbaa !3
  %20 = call noundef ptr @_ZNK4base16BasicStringPieceINSt7__cxx1112basic_stringIcSt11char_traitsIcESaIcEEEE4dataEv(ptr noundef nonnull align 8 dereferenceable(16) %19)
  %21 = load i64, ptr %7, align 8, !tbaa !19
  %22 = getelementptr inbounds nuw i8, ptr %20, i64 %21
  %23 = load i8, ptr %22, align 1, !tbaa !25
  %24 = sext i8 %23 to i32
  %25 = load i8, ptr %6, align 1, !tbaa !25
  %26 = sext i8 %25 to i32
  %27 = icmp ne i32 %24, %26
  br i1 %27, label %28, label %30

28:                                               ; preds = %18
  %29 = load i64, ptr %7, align 8, !tbaa !19
  store i64 %29, ptr %4, align 8
  br label %35

30:                                               ; preds = %18
  br label %31

31:                                               ; preds = %30
  %32 = load i64, ptr %7, align 8, !tbaa !19
  %33 = add i64 %32, 1
  store i64 %33, ptr %7, align 8, !tbaa !19
  br label %13, !llvm.loop !83

34:                                               ; preds = %13
  store i64 -1, ptr %4, align 8
  br label %35

35:                                               ; preds = %34, %28, %11
  %36 = load i64, ptr %4, align 8
  ret i64 %36
}

; Function Attrs: inlinehint mustprogress nounwind uwtable
define internal void @_ZN4base12_GLOBAL__N_116BuildLookupTableERKNS_16BasicStringPieceINSt7__cxx1112basic_stringIcSt11char_traitsIcESaIcEEEEEPb(ptr noundef nonnull align 8 dereferenceable(16) %0, ptr noundef %1) #7 {
  %3 = alloca ptr, align 8
  %4 = alloca ptr, align 8
  %5 = alloca i64, align 8
  %6 = alloca ptr, align 8
  %7 = alloca i64, align 8
  store ptr %0, ptr %3, align 8, !tbaa !3
  store ptr %1, ptr %4, align 8, !tbaa !78
  call void @llvm.lifetime.start.p0(i64 8, ptr %5) #14
  %8 = load ptr, ptr %3, align 8, !tbaa !3
  %9 = call noundef i64 @_ZNK4base16BasicStringPieceINSt7__cxx1112basic_stringIcSt11char_traitsIcESaIcEEEE6lengthEv(ptr noundef nonnull align 8 dereferenceable(16) %8)
  store i64 %9, ptr %5, align 8, !tbaa !19
  call void @llvm.lifetime.start.p0(i64 8, ptr %6) #14
  %10 = load ptr, ptr %3, align 8, !tbaa !3
  %11 = call noundef ptr @_ZNK4base16BasicStringPieceINSt7__cxx1112basic_stringIcSt11char_traitsIcESaIcEEEE4dataEv(ptr noundef nonnull align 8 dereferenceable(16) %10)
  store ptr %11, ptr %6, align 8, !tbaa !13
  call void @llvm.lifetime.start.p0(i64 8, ptr %7) #14
  store i64 0, ptr %7, align 8, !tbaa !19
  br label %12

12:                                               ; preds = %25, %2
  %13 = load i64, ptr %7, align 8, !tbaa !19
  %14 = load i64, ptr %5, align 8, !tbaa !19
  %15 = icmp ult i64 %13, %14
  br i1 %15, label %17, label %16

16:                                               ; preds = %12
  call void @llvm.lifetime.end.p0(i64 8, ptr %7) #14
  br label %28

17:                                               ; preds = %12
  %18 = load ptr, ptr %4, align 8, !tbaa !78
  %19 = load ptr, ptr %6, align 8, !tbaa !13
  %20 = load i64, ptr %7, align 8, !tbaa !19
  %21 = getelementptr inbounds nuw i8, ptr %19, i64 %20
  %22 = load i8, ptr %21, align 1, !tbaa !25
  %23 = zext i8 %22 to i64
  %24 = getelementptr inbounds nuw i8, ptr %18, i64 %23
  store i8 1, ptr %24, align 1, !tbaa !34
  br label %25

25:                                               ; preds = %17
  %26 = load i64, ptr %7, align 8, !tbaa !19
  %27 = add i64 %26, 1
  store i64 %27, ptr %7, align 8, !tbaa !19
  br label %12, !llvm.loop !80

28:                                               ; preds = %16
  call void @llvm.lifetime.end.p0(i64 8, ptr %6) #14
  call void @llvm.lifetime.end.p0(i64 8, ptr %5) #14
  ret void
}

; Function Attrs: mustprogress uwtable
define noundef i64 @_ZN4base8internal17find_first_not_ofERKNS_16BasicStringPieceINSt7__cxx1112basic_stringIcSt11char_traitsIcESaIcEEEEEcm(ptr noundef nonnull align 8 dereferenceable(16) %0, i8 noundef signext %1, i64 noundef %2) #1 {
  %4 = alloca ptr, align 8
  %5 = alloca i8, align 1
  %6 = alloca i64, align 8
  store ptr %0, ptr %4, align 8, !tbaa !3
  store i8 %1, ptr %5, align 1, !tbaa !25
  store i64 %2, ptr %6, align 8, !tbaa !19
  %7 = load ptr, ptr %4, align 8, !tbaa !3
  %8 = load i8, ptr %5, align 1, !tbaa !25
  %9 = load i64, ptr %6, align 8, !tbaa !19
  %10 = call noundef i64 @_ZN4base8internal18find_first_not_ofTINSt7__cxx1112basic_stringIcSt11char_traitsIcESaIcEEEEEmRKNS_16BasicStringPieceIT_EENS9_10value_typeEm(ptr noundef nonnull align 8 dereferenceable(16) %7, i8 noundef signext %8, i64 noundef %9)
  ret i64 %10
}

; Function Attrs: mustprogress nounwind uwtable
define weak_odr noundef ptr @_ZNK4base16BasicStringPieceINSt7__cxx1112basic_stringIcSt11char_traitsIcESaIcEEEE4dataEv(ptr noundef nonnull align 8 dereferenceable(16) %0) #0 comdat align 2 {
  %2 = alloca ptr, align 8
  store ptr %0, ptr %2, align 8, !tbaa !3
  %3 = load ptr, ptr %2, align 8
  %4 = getelementptr inbounds nuw %"class.base::BasicStringPiece", ptr %3, i32 0, i32 0
  %5 = load ptr, ptr %4, align 8, !tbaa !8
  ret ptr %5
}

; Function Attrs: mustprogress nounwind uwtable
define weak_odr noundef i64 @_ZNK4base16BasicStringPieceINSt7__cxx1112basic_stringIcSt11char_traitsIcESaIcEEEE4sizeEv(ptr noundef nonnull align 8 dereferenceable(16) %0) #0 comdat align 2 {
  %2 = alloca ptr, align 8
  store ptr %0, ptr %2, align 8, !tbaa !3
  %3 = load ptr, ptr %2, align 8
  %4 = getelementptr inbounds nuw %"class.base::BasicStringPiece", ptr %3, i32 0, i32 1
  %5 = load i64, ptr %4, align 8, !tbaa !12
  ret i64 %5
}

; Function Attrs: mustprogress uwtable
define noundef i64 @_ZN4base8internal17find_first_not_ofERKNS_16BasicStringPieceINSt7__cxx1112basic_stringIcSt11char_traitsIcESaIcEEEEESA_m(ptr noundef nonnull align 8 dereferenceable(16) %0, ptr noundef nonnull align 8 dereferenceable(16) %1, i64 noundef %2) #1 {
  %4 = alloca i64, align 8
  %5 = alloca ptr, align 8
  %6 = alloca ptr, align 8
  %7 = alloca i64, align 8
  %8 = alloca [256 x i8], align 16
  %9 = alloca i64, align 8
  %10 = alloca i32, align 4
  store ptr %0, ptr %5, align 8, !tbaa !3
  store ptr %1, ptr %6, align 8, !tbaa !3
  store i64 %2, ptr %7, align 8, !tbaa !19
  %11 = load ptr, ptr %5, align 8, !tbaa !3
  %12 = call noundef i64 @_ZNK4base16BasicStringPieceINSt7__cxx1112basic_stringIcSt11char_traitsIcESaIcEEEE4sizeEv(ptr noundef nonnull align 8 dereferenceable(16) %11)
  %13 = icmp eq i64 %12, 0
  br i1 %13, label %14, label %15

14:                                               ; preds = %3
  store i64 -1, ptr %4, align 8
  br label %62

15:                                               ; preds = %3
  %16 = load ptr, ptr %6, align 8, !tbaa !3
  %17 = call noundef i64 @_ZNK4base16BasicStringPieceINSt7__cxx1112basic_stringIcSt11char_traitsIcESaIcEEEE4sizeEv(ptr noundef nonnull align 8 dereferenceable(16) %16)
  %18 = icmp eq i64 %17, 0
  br i1 %18, label %19, label %20

19:                                               ; preds = %15
  store i64 0, ptr %4, align 8
  br label %62

20:                                               ; preds = %15
  %21 = load ptr, ptr %6, align 8, !tbaa !3
  %22 = call noundef i64 @_ZNK4base16BasicStringPieceINSt7__cxx1112basic_stringIcSt11char_traitsIcESaIcEEEE4sizeEv(ptr noundef nonnull align 8 dereferenceable(16) %21)
  %23 = icmp eq i64 %22, 1
  br i1 %23, label %24, label %32

24:                                               ; preds = %20
  %25 = load ptr, ptr %5, align 8, !tbaa !3
  %26 = load ptr, ptr %6, align 8, !tbaa !3
  %27 = call noundef ptr @_ZNK4base16BasicStringPieceINSt7__cxx1112basic_stringIcSt11char_traitsIcESaIcEEEE4dataEv(ptr noundef nonnull align 8 dereferenceable(16) %26)
  %28 = getelementptr inbounds i8, ptr %27, i64 0
  %29 = load i8, ptr %28, align 1, !tbaa !25
  %30 = load i64, ptr %7, align 8, !tbaa !19
  %31 = call noundef i64 @_ZN4base8internal17find_first_not_ofERKNS_16BasicStringPieceINSt7__cxx1112basic_stringIcSt11char_traitsIcESaIcEEEEEcm(ptr noundef nonnull align 8 dereferenceable(16) %25, i8 noundef signext %29, i64 noundef %30)
  store i64 %31, ptr %4, align 8
  br label %62

32:                                               ; preds = %20
  call void @llvm.lifetime.start.p0(i64 256, ptr %8) #14
  call void @llvm.memset.p0.i64(ptr align 16 %8, i8 0, i64 256, i1 false)
  %33 = load ptr, ptr %6, align 8, !tbaa !3
  %34 = getelementptr inbounds [256 x i8], ptr %8, i64 0, i64 0
  call void @_ZN4base12_GLOBAL__N_116BuildLookupTableERKNS_16BasicStringPieceINSt7__cxx1112basic_stringIcSt11char_traitsIcESaIcEEEEEPb(ptr noundef nonnull align 8 dereferenceable(16) %33, ptr noundef %34)
  call void @llvm.lifetime.start.p0(i64 8, ptr %9) #14
  %35 = load i64, ptr %7, align 8, !tbaa !19
  store i64 %35, ptr %9, align 8, !tbaa !19
  br label %36

36:                                               ; preds = %55, %32
  %37 = load i64, ptr %9, align 8, !tbaa !19
  %38 = load ptr, ptr %5, align 8, !tbaa !3
  %39 = call noundef i64 @_ZNK4base16BasicStringPieceINSt7__cxx1112basic_stringIcSt11char_traitsIcESaIcEEEE4sizeEv(ptr noundef nonnull align 8 dereferenceable(16) %38)
  %40 = icmp ult i64 %37, %39
  br i1 %40, label %42, label %41

41:                                               ; preds = %36
  store i32 2, ptr %10, align 4
  br label %58

42:                                               ; preds = %36
  %43 = load ptr, ptr %5, align 8, !tbaa !3
  %44 = call noundef ptr @_ZNK4base16BasicStringPieceINSt7__cxx1112basic_stringIcSt11char_traitsIcESaIcEEEE4dataEv(ptr noundef nonnull align 8 dereferenceable(16) %43)
  %45 = load i64, ptr %9, align 8, !tbaa !19
  %46 = getelementptr inbounds nuw i8, ptr %44, i64 %45
  %47 = load i8, ptr %46, align 1, !tbaa !25
  %48 = zext i8 %47 to i64
  %49 = getelementptr inbounds nuw [256 x i8], ptr %8, i64 0, i64 %48
  %50 = load i8, ptr %49, align 1, !tbaa !34, !range !36, !noundef !37
  %51 = trunc i8 %50 to i1
  br i1 %51, label %54, label %52

52:                                               ; preds = %42
  %53 = load i64, ptr %9, align 8, !tbaa !19
  store i64 %53, ptr %4, align 8
  store i32 1, ptr %10, align 4
  br label %58

54:                                               ; preds = %42
  br label %55

55:                                               ; preds = %54
  %56 = load i64, ptr %9, align 8, !tbaa !19
  %57 = add i64 %56, 1
  store i64 %57, ptr %9, align 8, !tbaa !19
  br label %36, !llvm.loop !40

58:                                               ; preds = %52, %41
  call void @llvm.lifetime.end.p0(i64 8, ptr %9) #14
  %59 = load i32, ptr %10, align 4
  switch i32 %59, label %61 [
    i32 2, label %60
  ]

60:                                               ; preds = %58
  store i64 -1, ptr %4, align 8
  store i32 1, ptr %10, align 4
  br label %61

61:                                               ; preds = %60, %58
  call void @llvm.lifetime.end.p0(i64 256, ptr %8) #14
  br label %62

62:                                               ; preds = %61, %24, %19, %14
  %63 = load i64, ptr %4, align 8
  ret i64 %63
}