; Function Attrs: mustprogress nofree norecurse nosync nounwind willreturn memory(read, inaccessiblemem: none) uwtable
define noundef i64 @_ZN4base8internal17find_first_not_ofERKNS_16BasicStringPieceINSt7__cxx1112basic_stringIcSt11char_traitsIcESaIcEEEEESA_m(ptr noundef nonnull readonly align 8 captures(none) dereferenceable(16) %0, ptr noundef nonnull readonly align 8 captures(none) dereferenceable(16) %1, i64 noundef %2) local_unnamed_addr #5 {
  %4 = alloca [256 x i8], align 16
  %5 = getelementptr inbounds nuw i8, ptr %0, i64 8
  %6 = load i64, ptr %5, align 8, !tbaa !10
  %7 = icmp eq i64 %6, 0
  br i1 %7, label %_ZN4base8internal17find_first_not_ofERKNS_16BasicStringPieceINSt7__cxx1112basic_stringIcSt11char_traitsIcESaIcEEEEEcm.exit, label %8

8:                                                ; preds = %3
  %9 = getelementptr inbounds nuw i8, ptr %1, i64 8
  %10 = load i64, ptr %9, align 8, !tbaa !10
  switch i64 %10, label %21 [
    i64 0, label %_ZN4base8internal17find_first_not_ofERKNS_16BasicStringPieceINSt7__cxx1112basic_stringIcSt11char_traitsIcESaIcEEEEEcm.exit
    i64 1, label %11
  ]

11:                                               ; preds = %8
  %12 = load ptr, ptr %1, align 8, !tbaa !3
  %13 = load i8, ptr %12, align 1, !tbaa !16
  %14 = icmp ult i64 %2, %6
  br i1 %14, label %.lr.ph.i.i, label %_ZN4base8internal17find_first_not_ofERKNS_16BasicStringPieceINSt7__cxx1112basic_stringIcSt11char_traitsIcESaIcEEEEEcm.exit

.lr.ph.i.i:                                       ; preds = %11
  %15 = load ptr, ptr %0, align 8, !tbaa !3
  br label %16

16:                                               ; preds = %19, %.lr.ph.i.i
  %.09.i.i = phi i64 [ %2, %.lr.ph.i.i ], [ %20, %19 ]
  %17 = getelementptr inbounds nuw i8, ptr %15, i64 %.09.i.i
  %18 = load i8, ptr %17, align 1, !tbaa !16
  %.not.i.i = icmp eq i8 %18, %13
  br i1 %.not.i.i, label %19, label %_ZN4base8internal17find_first_not_ofERKNS_16BasicStringPieceINSt7__cxx1112basic_stringIcSt11char_traitsIcESaIcEEEEEcm.exit

19:                                               ; preds = %16
  %20 = add i64 %.09.i.i, 1
  %exitcond.not.i.i = icmp eq i64 %20, %6
  br i1 %exitcond.not.i.i, label %_ZN4base8internal17find_first_not_ofERKNS_16BasicStringPieceINSt7__cxx1112basic_stringIcSt11char_traitsIcESaIcEEEEEcm.exit, label %16, !llvm.loop !30

21:                                               ; preds = %8
  call void @llvm.lifetime.start.p0(i64 256, ptr nonnull %4) #15
  call void @llvm.memset.p0.i64(ptr noundef nonnull align 16 dereferenceable(256) %4, i8 0, i64 256, i1 false)
  %.val = load ptr, ptr %1, align 8, !tbaa !3
  br label %.lr.ph.i

.lr.ph.i:                                         ; preds = %21, %.lr.ph.i
  %.01.i = phi i64 [ %26, %.lr.ph.i ], [ 0, %21 ]
  %22 = getelementptr inbounds nuw i8, ptr %.val, i64 %.01.i
  %23 = load i8, ptr %22, align 1, !tbaa !16
  %24 = zext i8 %23 to i64
  %25 = getelementptr inbounds nuw i8, ptr %4, i64 %24
  store i8 1, ptr %25, align 1, !tbaa !24
  %26 = add nuw i64 %.01.i, 1
  %exitcond.not.i = icmp eq i64 %26, %10
  br i1 %exitcond.not.i, label %_ZN4base12_GLOBAL__N_116BuildLookupTableERKNS_16BasicStringPieceINSt7__cxx1112basic_stringIcSt11char_traitsIcESaIcEEEEEPb.exit.preheader, label %.lr.ph.i, !llvm.loop !26

_ZN4base12_GLOBAL__N_116BuildLookupTableERKNS_16BasicStringPieceINSt7__cxx1112basic_stringIcSt11char_traitsIcESaIcEEEEEPb.exit.preheader: ; preds = %.lr.ph.i
  %.not18 = icmp ult i64 %2, %6
  br i1 %.not18, label %.lr.ph, label %._crit_edge

.lr.ph:                                           ; preds = %_ZN4base12_GLOBAL__N_116BuildLookupTableERKNS_16BasicStringPieceINSt7__cxx1112basic_stringIcSt11char_traitsIcESaIcEEEEEPb.exit.preheader
  %27 = load ptr, ptr %0, align 8, !tbaa !3
  br label %28

28:                                               ; preds = %.lr.ph, %_ZN4base12_GLOBAL__N_116BuildLookupTableERKNS_16BasicStringPieceINSt7__cxx1112basic_stringIcSt11char_traitsIcESaIcEEEEEPb.exit
  %.01519 = phi i64 [ %2, %.lr.ph ], [ %35, %_ZN4base12_GLOBAL__N_116BuildLookupTableERKNS_16BasicStringPieceINSt7__cxx1112basic_stringIcSt11char_traitsIcESaIcEEEEEPb.exit ]
  %29 = getelementptr inbounds nuw i8, ptr %27, i64 %.01519
  %30 = load i8, ptr %29, align 1, !tbaa !16
  %31 = zext i8 %30 to i64
  %32 = getelementptr inbounds nuw [256 x i8], ptr %4, i64 0, i64 %31
  %33 = load i8, ptr %32, align 1, !tbaa !24, !range !27, !noundef !28
  %34 = trunc nuw i8 %33 to i1
  br i1 %34, label %_ZN4base12_GLOBAL__N_116BuildLookupTableERKNS_16BasicStringPieceINSt7__cxx1112basic_stringIcSt11char_traitsIcESaIcEEEEEPb.exit, label %._crit_edge

_ZN4base12_GLOBAL__N_116BuildLookupTableERKNS_16BasicStringPieceINSt7__cxx1112basic_stringIcSt11char_traitsIcESaIcEEEEEPb.exit: ; preds = %28
  %35 = add i64 %.01519, 1
  %exitcond.not = icmp eq i64 %35, %6
  br i1 %exitcond.not, label %._crit_edge, label %28, !llvm.loop !31

._crit_edge:                                      ; preds = %_ZN4base12_GLOBAL__N_116BuildLookupTableERKNS_16BasicStringPieceINSt7__cxx1112basic_stringIcSt11char_traitsIcESaIcEEEEEPb.exit, %28, %_ZN4base12_GLOBAL__N_116BuildLookupTableERKNS_16BasicStringPieceINSt7__cxx1112basic_stringIcSt11char_traitsIcESaIcEEEEEPb.exit.preheader
  %spec.select = phi i64 [ -1, %_ZN4base12_GLOBAL__N_116BuildLookupTableERKNS_16BasicStringPieceINSt7__cxx1112basic_stringIcSt11char_traitsIcESaIcEEEEEPb.exit.preheader ], [ %.01519, %28 ], [ -1, %_ZN4base12_GLOBAL__N_116BuildLookupTableERKNS_16BasicStringPieceINSt7__cxx1112basic_stringIcSt11char_traitsIcESaIcEEEEEPb.exit ]
  call void @llvm.lifetime.end.p0(i64 256, ptr nonnull %4) #15
  br label %_ZN4base8internal17find_first_not_ofERKNS_16BasicStringPieceINSt7__cxx1112basic_stringIcSt11char_traitsIcESaIcEEEEEcm.exit

_ZN4base8internal17find_first_not_ofERKNS_16BasicStringPieceINSt7__cxx1112basic_stringIcSt11char_traitsIcESaIcEEEEEcm.exit: ; preds = %19, %16, %8, %11, %3, %._crit_edge
  %.016 = phi i64 [ %spec.select, %._crit_edge ], [ -1, %3 ], [ %10, %8 ], [ -1, %11 ], [ %.09.i.i, %16 ], [ -1, %19 ]
  ret i64 %.016
}